target datalayout = "e-m:e-p270:32:32-p271:32:32-p272:64:64-i64:64-i128:128-f80:128-n8:16:32:64-S128"
target triple = "x86_64-pc-linux-gnu"

%struct.SDL_FPoint = type { float, float }
%struct.SDL_FColor = type { float, float, float, float }
%struct.SDL_Vertex = type { %struct.SDL_FPoint, %struct.SDL_FColor, %struct.SDL_FPoint }

@.str.2 = private unnamed_addr constant [26 x i8] c"Parameter '%s' is invalid\00", align 1
@.str.79 = private unnamed_addr constant [9 x i8] c"vertices\00", align 1

; Function Attrs: nounwind uwtable
define hidden zeroext i1 @SDL_RenderGeometry_REAL(ptr noundef %0, ptr noundef %1, ptr noundef %2, i32 noundef %3, ptr noundef %4, i32 noundef %5) #0 {
  %7 = alloca i1, align 1
  %8 = alloca ptr, align 8
  %9 = alloca ptr, align 8
  %10 = alloca ptr, align 8
  %11 = alloca i32, align 4
  %12 = alloca ptr, align 8
  %13 = alloca i32, align 4
  %14 = alloca ptr, align 8
  %15 = alloca i32, align 4
  %16 = alloca ptr, align 8
  %17 = alloca i32, align 4
  %18 = alloca ptr, align 8
  %19 = alloca i32, align 4
  %20 = alloca i32, align 4
  store ptr %0, ptr %8, align 8
  store ptr %1, ptr %9, align 8
  store ptr %2, ptr %10, align 8
  store i32 %3, ptr %11, align 4
  store ptr %4, ptr %12, align 8
  store i32 %5, ptr %13, align 4
  %21 = load ptr, ptr %10, align 8
  %22 = icmp ne ptr %21, null
  br i1 %22, label %23, label %45

23:                                               ; preds = %6
  call void @llvm.lifetime.start.p0(i64 8, ptr %14) #10
  %24 = load ptr, ptr %10, align 8
  %25 = getelementptr inbounds nuw %struct.SDL_Vertex, ptr %24, i32 0, i32 0
  %26 = getelementptr inbounds nuw %struct.SDL_FPoint, ptr %25, i32 0, i32 0
  store ptr %26, ptr %14, align 8
  call void @llvm.lifetime.start.p0(i64 4, ptr %15) #10
  store i32 32, ptr %15, align 4
  call void @llvm.lifetime.start.p0(i64 8, ptr %16) #10
  %27 = load ptr, ptr %10, align 8
  %28 = getelementptr inbounds nuw %struct.SDL_Vertex, ptr %27, i32 0, i32 1
  store ptr %28, ptr %16, align 8
  call void @llvm.lifetime.start.p0(i64 4, ptr %17) #10
  store i32 32, ptr %17, align 4
  call void @llvm.lifetime.start.p0(i64 8, ptr %18) #10
  %29 = load ptr, ptr %10, align 8
  %30 = getelementptr inbounds nuw %struct.SDL_Vertex, ptr %29, i32 0, i32 2
  %31 = getelementptr inbounds nuw %struct.SDL_FPoint, ptr %30, i32 0, i32 0
  store ptr %31, ptr %18, align 8
  call void @llvm.lifetime.start.p0(i64 4, ptr %19) #10
  store i32 32, ptr %19, align 4
  call void @llvm.lifetime.start.p0(i64 4, ptr %20) #10
  store i32 4, ptr %20, align 4
  %32 = load ptr, ptr %8, align 8
  %33 = load ptr, ptr %9, align 8
  %34 = load ptr, ptr %14, align 8
  %35 = load i32, ptr %15, align 4
  %36 = load ptr, ptr %16, align 8
  %37 = load i32, ptr %17, align 4
  %38 = load ptr, ptr %18, align 8
  %39 = load i32, ptr %19, align 4
  %40 = load i32, ptr %11, align 4
  %41 = load ptr, ptr %12, align 8
  %42 = load i32, ptr %13, align 4
  %43 = load i32, ptr %20, align 4
  %44 = call zeroext i1 @SDL_RenderGeometryRaw_REAL(ptr noundef %32, ptr noundef %33, ptr noundef %34, i32 noundef %35, ptr noundef %36, i32 noundef %37, ptr noundef %38, i32 noundef %39, i32 noundef %40, ptr noundef %41, i32 noundef %42, i32 noundef %43)
  store i1 %44, ptr %7, align 1
  call void @llvm.lifetime.end.p0(i64 4, ptr %20) #10
  call void @llvm.lifetime.end.p0(i64 4, ptr %19) #10
  call void @llvm.lifetime.end.p0(i64 8, ptr %18) #10
  call void @llvm.lifetime.end.p0(i64 4, ptr %17) #10
  call void @llvm.lifetime.end.p0(i64 8, ptr %16) #10
  call void @llvm.lifetime.end.p0(i64 4, ptr %15) #10
  call void @llvm.lifetime.end.p0(i64 8, ptr %14) #10
  br label %47

45:                                               ; preds = %6
  %46 = call zeroext i1 (ptr, ...) @SDL_SetError_REAL(ptr noundef @.str.2, ptr noundef @.str.79)
  store i1 %46, ptr %7, align 1
  br label %47

47:                                               ; preds = %45, %23
  %48 = load i1, ptr %7, align 1
  ret i1 %48
}