; Function Attrs: nounwind uwtable
define hidden zeroext i1 @SDL_RenderGeometry_REAL(ptr noundef %0, ptr noundef %1, ptr noundef %2, i32 noundef %3, ptr noundef %4, i32 noundef %5) local_unnamed_addr #0 {
  %.not = icmp eq ptr %2, null
  br i1 %.not, label %11, label %7

7:                                                ; preds = %6
  %8 = getelementptr inbounds nuw i8, ptr %2, i64 8
  %9 = getelementptr inbounds nuw i8, ptr %2, i64 24
  %10 = tail call zeroext i1 @SDL_RenderGeometryRaw_REAL(ptr noundef %0, ptr noundef %1, ptr noundef nonnull %2, i32 noundef 32, ptr noundef nonnull %8, i32 noundef 32, ptr noundef nonnull %9, i32 noundef 32, i32 noundef %3, ptr noundef %4, i32 noundef %5, i32 noundef 4)
  br label %13

11:                                               ; preds = %6
  %12 = tail call zeroext i1 (ptr, ...) @SDL_SetError_REAL(ptr noundef nonnull @.str.2, ptr noundef nonnull @.str.79) #15
  br label %13

13:                                               ; preds = %11, %7
  %.0 = phi i1 [ %10, %7 ], [ %12, %11 ]
  ret i1 %.0
}